target datalayout = "e-m:e-p270:32:32-p271:32:32-p272:64:64-i64:64-i128:128-f80:128-n8:16:32:64-S128"
target triple = "x86_64-pc-linux-gnu"

%struct.evthread_lock_callbacks = type { i32, i32, ptr, ptr, ptr, ptr }
%struct.evdns_server_port = type { i32, i32, i8, i8, ptr, ptr, %struct.event, ptr, ptr, ptr, %struct.client_list, i32, i32, %struct.timeval, ptr }
%struct.event = type { %struct.event_callback, %union.anon.0, i32, i16, i16, ptr, %union.anon.2, %struct.timeval }
%struct.event_callback = type { %struct.anon, i16, i8, i8, %union.anon, ptr }
%struct.anon = type { ptr, ptr }
%union.anon = type { ptr }
%union.anon.0 = type { %struct.anon.1 }
%struct.anon.1 = type { ptr, ptr }
%union.anon.2 = type { %struct.anon.3 }
%struct.anon.3 = type { %struct.anon.4, %struct.timeval }
%struct.anon.4 = type { ptr, ptr }
%struct.client_list = type { ptr }
%struct.timeval = type { i64, i64 }

@evthread_lock_fns_ = external global %struct.evthread_lock_callbacks, align 8

; Function Attrs: nounwind uwtable
define ptr @evdns_add_server_port_with_base(ptr noundef %0, i32 noundef %1, i32 noundef %2, ptr noundef %3, ptr noundef %4) #0 {
  %6 = alloca ptr, align 8
  %7 = alloca ptr, align 8
  %8 = alloca i32, align 4
  %9 = alloca i32, align 4
  %10 = alloca ptr, align 8
  %11 = alloca ptr, align 8
  %12 = alloca ptr, align 8
  %13 = alloca i32, align 4
  store ptr %0, ptr %7, align 8
  store i32 %1, ptr %8, align 4
  store i32 %2, ptr %9, align 4
  store ptr %3, ptr %10, align 8
  store ptr %4, ptr %11, align 8
  call void @llvm.lifetime.start.p0(i64 8, ptr %12) #10
  %14 = load i32, ptr %9, align 4
  %15 = icmp ne i32 %14, 0
  br i1 %15, label %16, label %17

16:                                               ; preds = %5
  store ptr null, ptr %6, align 8
  store i32 1, ptr %13, align 4
  br label %87

17:                                               ; preds = %5
  %18 = call ptr @event_mm_malloc_(i64 noundef 216)
  store ptr %18, ptr %12, align 8
  %19 = icmp ne ptr %18, null
  br i1 %19, label %21, label %20

20:                                               ; preds = %17
  store ptr null, ptr %6, align 8
  store i32 1, ptr %13, align 4
  br label %87

21:                                               ; preds = %17
  %22 = load ptr, ptr %12, align 8
  call void @llvm.memset.p0.i64(ptr align 8 %22, i8 0, i64 216, i1 false)
  %23 = load i32, ptr %8, align 4
  %24 = load ptr, ptr %12, align 8
  %25 = getelementptr inbounds nuw %struct.evdns_server_port, ptr %24, i32 0, i32 0
  store i32 %23, ptr %25, align 8
  %26 = load ptr, ptr %12, align 8
  %27 = getelementptr inbounds nuw %struct.evdns_server_port, ptr %26, i32 0, i32 1
  store i32 1, ptr %27, align 4
  %28 = load ptr, ptr %12, align 8
  %29 = getelementptr inbounds nuw %struct.evdns_server_port, ptr %28, i32 0, i32 2
  store i8 0, ptr %29, align 8
  %30 = load ptr, ptr %12, align 8
  %31 = getelementptr inbounds nuw %struct.evdns_server_port, ptr %30, i32 0, i32 3
  store i8 0, ptr %31, align 1
  %32 = load ptr, ptr %10, align 8
  %33 = load ptr, ptr %12, align 8
  %34 = getelementptr inbounds nuw %struct.evdns_server_port, ptr %33, i32 0, i32 4
  store ptr %32, ptr %34, align 8
  %35 = load ptr, ptr %11, align 8
  %36 = load ptr, ptr %12, align 8
  %37 = getelementptr inbounds nuw %struct.evdns_server_port, ptr %36, i32 0, i32 5
  store ptr %35, ptr %37, align 8
  %38 = load ptr, ptr %12, align 8
  %39 = getelementptr inbounds nuw %struct.evdns_server_port, ptr %38, i32 0, i32 7
  store ptr null, ptr %39, align 8
  %40 = load ptr, ptr %7, align 8
  %41 = load ptr, ptr %12, align 8
  %42 = getelementptr inbounds nuw %struct.evdns_server_port, ptr %41, i32 0, i32 8
  store ptr %40, ptr %42, align 8
  %43 = load ptr, ptr %12, align 8
  %44 = getelementptr inbounds nuw %struct.evdns_server_port, ptr %43, i32 0, i32 12
  store i32 10, ptr %44, align 4
  %45 = load ptr, ptr %12, align 8
  %46 = getelementptr inbounds nuw %struct.evdns_server_port, ptr %45, i32 0, i32 13
  %47 = getelementptr inbounds nuw %struct.timeval, ptr %46, i32 0, i32 0
  store i64 10, ptr %47, align 8
  %48 = load ptr, ptr %12, align 8
  %49 = getelementptr inbounds nuw %struct.evdns_server_port, ptr %48, i32 0, i32 13
  %50 = getelementptr inbounds nuw %struct.timeval, ptr %49, i32 0, i32 1
  store i64 0, ptr %50, align 8
  %51 = load ptr, ptr %12, align 8
  %52 = getelementptr inbounds nuw %struct.evdns_server_port, ptr %51, i32 0, i32 11
  store i32 0, ptr %52, align 8
  br label %53

53:                                               ; preds = %21
  %54 = load ptr, ptr %12, align 8
  %55 = getelementptr inbounds nuw %struct.evdns_server_port, ptr %54, i32 0, i32 10
  %56 = getelementptr inbounds nuw %struct.client_list, ptr %55, i32 0, i32 0
  store ptr null, ptr %56, align 8
  br label %57

57:                                               ; preds = %53
  br label %58

58:                                               ; preds = %57
  %59 = load ptr, ptr %12, align 8
  %60 = getelementptr inbounds nuw %struct.evdns_server_port, ptr %59, i32 0, i32 6
  %61 = load ptr, ptr %12, align 8
  %62 = getelementptr inbounds nuw %struct.evdns_server_port, ptr %61, i32 0, i32 8
  %63 = load ptr, ptr %62, align 8
  %64 = load ptr, ptr %12, align 8
  %65 = getelementptr inbounds nuw %struct.evdns_server_port, ptr %64, i32 0, i32 0
  %66 = load i32, ptr %65, align 8
  %67 = load ptr, ptr %12, align 8
  %68 = call i32 @event_assign(ptr noundef %60, ptr noundef %63, i32 noundef %66, i16 noundef signext 18, ptr noundef @server_port_ready_callback, ptr noundef %67)
  %69 = load ptr, ptr %12, align 8
  %70 = getelementptr inbounds nuw %struct.evdns_server_port, ptr %69, i32 0, i32 6
  %71 = call i32 @event_add(ptr noundef %70, ptr noundef null)
  %72 = icmp slt i32 %71, 0
  br i1 %72, label %73, label %75

73:                                               ; preds = %58
  %74 = load ptr, ptr %12, align 8
  call void @event_mm_free_(ptr noundef %74)
  store ptr null, ptr %6, align 8
  store i32 1, ptr %13, align 4
  br label %87

75:                                               ; preds = %58
  %76 = load ptr, ptr getelementptr inbounds nuw (%struct.evthread_lock_callbacks, ptr @evthread_lock_fns_, i32 0, i32 2), align 8
  %77 = icmp ne ptr %76, null
  br i1 %77, label %78, label %81

78:                                               ; preds = %75
  %79 = load ptr, ptr getelementptr inbounds nuw (%struct.evthread_lock_callbacks, ptr @evthread_lock_fns_, i32 0, i32 2), align 8
  %80 = call ptr %79(i32 noundef 1)
  br label %82

81:                                               ; preds = %75
  br label %82

82:                                               ; preds = %81, %78
  %83 = phi ptr [ %80, %78 ], [ null, %81 ]
  %84 = load ptr, ptr %12, align 8
  %85 = getelementptr inbounds nuw %struct.evdns_server_port, ptr %84, i32 0, i32 14
  store ptr %83, ptr %85, align 8
  %86 = load ptr, ptr %12, align 8
  store ptr %86, ptr %6, align 8
  store i32 1, ptr %13, align 4
  br label %87

87:                                               ; preds = %82, %73, %20, %16
  call void @llvm.lifetime.end.p0(i64 8, ptr %12) #10
  %88 = load ptr, ptr %6, align 8
  ret ptr %88
}

; Function Attrs: nounwind uwtable
define ptr @evdns_add_server_port(i32 noundef %0, i32 noundef %1, ptr noundef %2, ptr noundef %3) #0 {
  %5 = alloca i32, align 4
  %6 = alloca i32, align 4
  %7 = alloca ptr, align 8
  %8 = alloca ptr, align 8
  store i32 %0, ptr %5, align 4
  store i32 %1, ptr %6, align 4
  store ptr %2, ptr %7, align 8
  store ptr %3, ptr %8, align 8
  %9 = load i32, ptr %5, align 4
  %10 = load i32, ptr %6, align 4
  %11 = load ptr, ptr %7, align 8
  %12 = load ptr, ptr %8, align 8
  %13 = call ptr @evdns_add_server_port_with_base(ptr noundef null, i32 noundef %9, i32 noundef %10, ptr noundef %11, ptr noundef %12)
  ret ptr %13
}