; Function Attrs: nounwind uwtable
define ptr @evdns_add_server_port(i32 noundef %0, i32 noundef %1, ptr noundef %2, ptr noundef %3) local_unnamed_addr #2 {
  %.not.i = icmp eq i32 %1, 0
  br i1 %.not.i, label %5, label %evdns_add_server_port_with_base.exit

5:                                                ; preds = %4
  %6 = tail call ptr @event_mm_malloc_(i64 noundef 216) #21
  %.not29.i = icmp eq ptr %6, null
  br i1 %.not29.i, label %evdns_add_server_port_with_base.exit, label %7

7:                                                ; preds = %5
  %8 = getelementptr inbounds nuw i8, ptr %6, i64 8
  tail call void @llvm.memset.p0.i64(ptr noundef nonnull align 8 dereferenceable(216) %8, i8 0, i64 208, i1 false)
  store i32 %0, ptr %6, align 8
  %9 = getelementptr inbounds nuw i8, ptr %6, i64 4
  store i32 1, ptr %9, align 4
  %10 = getelementptr inbounds nuw i8, ptr %6, i64 16
  store ptr %2, ptr %10, align 8
  %11 = getelementptr inbounds nuw i8, ptr %6, i64 24
  store ptr %3, ptr %11, align 8
  %12 = getelementptr inbounds nuw i8, ptr %6, i64 188
  store i32 10, ptr %12, align 4
  %13 = getelementptr inbounds nuw i8, ptr %6, i64 192
  store i64 10, ptr %13, align 8
  %14 = getelementptr inbounds nuw i8, ptr %6, i64 32
  %15 = tail call i32 @event_assign(ptr noundef nonnull %14, ptr noundef null, i32 noundef %0, i16 noundef signext 18, ptr noundef nonnull @server_port_ready_callback, ptr noundef nonnull %6) #21
  %16 = tail call i32 @event_add(ptr noundef nonnull %14, ptr noundef null) #21
  %17 = icmp slt i32 %16, 0
  br i1 %17, label %18, label %19

18:                                               ; preds = %7
  tail call void @event_mm_free_(ptr noundef nonnull %6) #21
  br label %evdns_add_server_port_with_base.exit

19:                                               ; preds = %7
  %20 = load ptr, ptr getelementptr inbounds nuw (i8, ptr @evthread_lock_fns_, i64 8), align 8
  %.not30.i = icmp eq ptr %20, null
  br i1 %.not30.i, label %23, label %21

21:                                               ; preds = %19
  %22 = tail call ptr %20(i32 noundef 1) #21
  br label %23

23:                                               ; preds = %21, %19
  %24 = phi ptr [ %22, %21 ], [ null, %19 ]
  %25 = getelementptr inbounds nuw i8, ptr %6, i64 208
  store ptr %24, ptr %25, align 8
  br label %evdns_add_server_port_with_base.exit

evdns_add_server_port_with_base.exit:             ; preds = %4, %5, %18, %23
  %.0.i = phi ptr [ null, %18 ], [ %6, %23 ], [ null, %4 ], [ null, %5 ]
  ret ptr %.0.i
}